; Function Attrs: nounwind uwtable
define void @Gia_ManSuperCollect(ptr noundef captures(none) %0, ptr noundef %1, i32 noundef %2) local_unnamed_addr #0 {
  %4 = getelementptr inbounds nuw i8, ptr %0, i64 960
  %5 = load ptr, ptr %4, align 8, !tbaa !36
  %6 = icmp eq ptr %5, null
  br i1 %6, label %7, label %12

7:                                                ; preds = %3
  %8 = tail call noalias dereferenceable_or_null(16) ptr @malloc(i64 noundef 16) #26
  %9 = getelementptr inbounds nuw i8, ptr %8, i64 4
  store i32 0, ptr %9, align 4, !tbaa !3
  store i32 1000, ptr %8, align 8, !tbaa !14
  %10 = tail call noalias dereferenceable_or_null(4000) ptr @malloc(i64 noundef 4000) #26
  %11 = getelementptr inbounds nuw i8, ptr %8, i64 8
  store ptr %10, ptr %11, align 8, !tbaa !10
  store ptr %8, ptr %4, align 8, !tbaa !36
  br label %14

12:                                               ; preds = %3
  %13 = getelementptr inbounds nuw i8, ptr %5, i64 4
  store i32 0, ptr %13, align 4, !tbaa !3
  br label %14

14:                                               ; preds = %12, %7
  %.val = load i64, ptr %1, align 4
  %15 = and i64 %.val, 2147483648
  %.not.i.i = icmp ne i64 %15, 0
  %16 = and i64 %.val, 536870911
  %17 = icmp eq i64 %16, 536870911
  %narrow.i.not.i = or i1 %.not.i.i, %17
  br i1 %narrow.i.not.i, label %Gia_ObjIsAndReal.exit.thread, label %Gia_ObjIsXor.exit

Gia_ObjIsXor.exit:                                ; preds = %14
  %18 = trunc i64 %.val to i32
  %19 = and i32 %18, 536870911
  %20 = lshr i64 %.val, 32
  %21 = trunc nuw i64 %20 to i32
  %22 = and i32 %21, 536870911
  %.not = icmp samesign ult i32 %19, %22
  br i1 %.not, label %23, label %36

23:                                               ; preds = %Gia_ObjIsXor.exit
  %24 = sub nsw i64 0, %16
  %25 = getelementptr inbounds %struct.Gia_Obj_t_, ptr %1, i64 %24
  tail call void @Gia_ManSuperCollectXor_rec(ptr noundef nonnull %0, ptr noundef nonnull %25, i32 noundef %2)
  %26 = load i64, ptr %1, align 4
  %27 = lshr i64 %26, 32
  %28 = and i64 %27, 536870911
  %29 = sub nsw i64 0, %28
  %30 = getelementptr inbounds %struct.Gia_Obj_t_, ptr %1, i64 %29
  tail call void @Gia_ManSuperCollectXor_rec(ptr noundef nonnull %0, ptr noundef nonnull %30, i32 noundef %2)
  %31 = load ptr, ptr %4, align 8, !tbaa !36
  %32 = getelementptr i8, ptr %31, i64 4
  %.val22 = load i32, ptr %32, align 4, !tbaa !3
  %33 = getelementptr i8, ptr %31, i64 8
  %.val23 = load ptr, ptr %33, align 8, !tbaa !10
  %34 = sext i32 %.val22 to i64
  tail call void @qsort(ptr noundef %.val23, i64 noundef %34, i64 noundef 4, ptr noundef nonnull @Vec_IntSortCompare1) #27
  %35 = load ptr, ptr %4, align 8, !tbaa !36
  tail call void @Gia_ManSimplifyXor(ptr noundef %35)
  br label %Gia_ObjIsAndReal.exit.thread

36:                                               ; preds = %Gia_ObjIsXor.exit
  %37 = icmp samesign ugt i32 %19, %22
  br i1 %37, label %38, label %Gia_ObjIsAndReal.exit.thread

38:                                               ; preds = %36
  %39 = getelementptr i8, ptr %0, i64 40
  %.val7.i = load ptr, ptr %39, align 8, !tbaa !37
  %.not.i.i.i = icmp eq ptr %.val7.i, null
  br i1 %.not.i.i.i, label %Gia_ObjIsAndReal.exit.thread30, label %Gia_ObjIsAndReal.exit

Gia_ObjIsAndReal.exit:                            ; preds = %38
  %40 = getelementptr i8, ptr %0, i64 32
  %.val6.i = load ptr, ptr %40, align 8, !tbaa !16
  %41 = ptrtoint ptr %1 to i64
  %42 = ptrtoint ptr %.val6.i to i64
  %43 = sub i64 %41, %42
  %44 = sdiv exact i64 %43, 12
  %sext.i.i = shl i64 %44, 32
  %45 = ashr exact i64 %sext.i.i, 30
  %46 = getelementptr inbounds i8, ptr %.val7.i, i64 %45
  %47 = load i32, ptr %46, align 4, !tbaa !11
  %.not32 = icmp eq i32 %47, 0
  br i1 %.not32, label %Gia_ObjIsAndReal.exit.thread30, label %Gia_ObjIsAndReal.exit.thread

Gia_ObjIsAndReal.exit.thread30:                   ; preds = %38, %Gia_ObjIsAndReal.exit
  %48 = sub nsw i64 0, %16
  %49 = getelementptr inbounds %struct.Gia_Obj_t_, ptr %1, i64 %48
  %50 = lshr i64 %.val, 29
  %51 = and i64 %50, 1
  %52 = ptrtoint ptr %49 to i64
  %53 = xor i64 %51, %52
  %54 = inttoptr i64 %53 to ptr
  tail call void @Gia_ManSuperCollectAnd_rec(ptr noundef nonnull %0, ptr noundef %54, i32 noundef %2)
  %55 = load i64, ptr %1, align 4
  %56 = lshr i64 %55, 32
  %57 = and i64 %56, 536870911
  %58 = sub nsw i64 0, %57
  %59 = getelementptr inbounds %struct.Gia_Obj_t_, ptr %1, i64 %58
  %60 = lshr i64 %55, 61
  %61 = and i64 %60, 1
  %62 = ptrtoint ptr %59 to i64
  %63 = xor i64 %61, %62
  %64 = inttoptr i64 %63 to ptr
  tail call void @Gia_ManSuperCollectAnd_rec(ptr noundef nonnull %0, ptr noundef %64, i32 noundef %2)
  %65 = load ptr, ptr %4, align 8, !tbaa !36
  %66 = getelementptr i8, ptr %65, i64 4
  %.val24 = load i32, ptr %66, align 4, !tbaa !3
  %67 = getelementptr i8, ptr %65, i64 8
  %.val25 = load ptr, ptr %67, align 8, !tbaa !10
  %68 = sext i32 %.val24 to i64
  tail call void @qsort(ptr noundef %.val25, i64 noundef %68, i64 noundef 4, ptr noundef nonnull @Vec_IntSortCompare1) #27
  %69 = load ptr, ptr %4, align 8, !tbaa !36
  tail call void @Gia_ManSimplifyAnd(ptr noundef %69)
  br label %Gia_ObjIsAndReal.exit.thread

Gia_ObjIsAndReal.exit.thread:                     ; preds = %14, %36, %Gia_ObjIsAndReal.exit.thread30, %Gia_ObjIsAndReal.exit, %23
  ret void
}